; Function Attrs: mustprogress nofree norecurse nosync nounwind willreturn memory(read, argmem: readwrite, inaccessiblemem: none) uwtable
define noundef i64 @_ZNK6icu_7712RegexMatcher7start64EiR10UErrorCode(ptr noundef nonnull readonly align 8 captures(none) dereferenceable(336) %0, i32 noundef %1, ptr noundef nonnull align 4 captures(none) dereferenceable(4) %2) unnamed_addr #13 align 2 {
  %4 = load i32, ptr %2, align 4, !tbaa !13
  %5 = icmp slt i32 %4, 1
  br i1 %5, label %6, label %47

6:                                                ; preds = %3
  %7 = getelementptr inbounds nuw i8, ptr %0, i64 316
  %8 = load i32, ptr %7, align 4, !tbaa !39
  %9 = icmp slt i32 %8, 1
  br i1 %9, label %11, label %10

10:                                               ; preds = %6
  store i32 %8, ptr %2, align 4, !tbaa !13
  br label %47

11:                                               ; preds = %6
  %12 = getelementptr inbounds nuw i8, ptr %0, i64 130
  %13 = load i8, ptr %12, align 2, !tbaa !29
  %14 = icmp eq i8 %13, 0
  br i1 %14, label %15, label %16

15:                                               ; preds = %11
  store i32 66306, ptr %2, align 4, !tbaa !13
  br label %47

16:                                               ; preds = %11
  %17 = icmp slt i32 %1, 0
  br i1 %17, label %26, label %18

18:                                               ; preds = %16
  %19 = getelementptr inbounds nuw i8, ptr %0, i64 8
  %20 = load ptr, ptr %19, align 8, !tbaa !42
  %21 = getelementptr inbounds nuw i8, ptr %20, i64 136
  %22 = load ptr, ptr %21, align 8, !tbaa !104
  %23 = getelementptr inbounds nuw i8, ptr %22, i64 8
  %24 = load i32, ptr %23, align 8, !tbaa !105
  %25 = icmp sgt i32 %1, %24
  br i1 %25, label %26, label %27

26:                                               ; preds = %18, %16
  store i32 8, ptr %2, align 4, !tbaa !13
  br label %47

27:                                               ; preds = %18
  %28 = icmp eq i32 %1, 0
  br i1 %28, label %29, label %31

29:                                               ; preds = %27
  %30 = getelementptr inbounds nuw i8, ptr %0, i64 136
  br label %46

31:                                               ; preds = %27
  %32 = add nsw i32 %1, -1
  %33 = icmp samesign ugt i32 %24, %32
  br i1 %33, label %34, label %_ZNK6icu_779UVector3210elementAtiEi.exit

34:                                               ; preds = %31
  %35 = getelementptr inbounds nuw i8, ptr %22, i64 24
  %36 = load ptr, ptr %35, align 8, !tbaa !108
  %37 = zext nneg i32 %32 to i64
  %38 = getelementptr inbounds nuw i32, ptr %36, i64 %37
  %39 = load i32, ptr %38, align 4, !tbaa !12
  %40 = sext i32 %39 to i64
  br label %_ZNK6icu_779UVector3210elementAtiEi.exit

_ZNK6icu_779UVector3210elementAtiEi.exit:         ; preds = %31, %34
  %41 = phi i64 [ %40, %34 ], [ 0, %31 ]
  %42 = getelementptr inbounds nuw i8, ptr %0, i64 184
  %43 = load ptr, ptr %42, align 8, !tbaa !109
  %44 = getelementptr inbounds nuw i8, ptr %43, i64 16
  %45 = getelementptr inbounds [1 x i64], ptr %44, i64 0, i64 %41
  br label %46

46:                                               ; preds = %_ZNK6icu_779UVector3210elementAtiEi.exit, %29
  %.011.in = phi ptr [ %30, %29 ], [ %45, %_ZNK6icu_779UVector3210elementAtiEi.exit ]
  %.011 = load i64, ptr %.011.in, align 8, !tbaa !110
  br label %47

47:                                               ; preds = %3, %46, %26, %15, %10
  %.0 = phi i64 [ -1, %10 ], [ -1, %15 ], [ -1, %26 ], [ %.011, %46 ], [ -1, %3 ]
  ret i64 %.0
}